; Function Attrs: nounwind uwtable
define dso_local ptr @zsetTypeCreate(i64 noundef %0, i64 noundef %1) local_unnamed_addr #0 {
  %3 = load i64, ptr getelementptr inbounds nuw (i8, ptr @server, i64 7736), align 8, !tbaa !101
  %.not = icmp ugt i64 %0, %3
  %4 = load i64, ptr getelementptr inbounds nuw (i8, ptr @server, i64 7744), align 8
  %.not6 = icmp ugt i64 %1, %4
  %or.cond = select i1 %.not, i1 true, i1 %.not6
  br i1 %or.cond, label %7, label %5

5:                                                ; preds = %2
  %6 = tail call ptr @createZsetListpackObject() #18
  br label %13

7:                                                ; preds = %2
  %8 = tail call ptr @createZsetObject() #18
  %9 = getelementptr inbounds nuw i8, ptr %8, i64 8
  %10 = load ptr, ptr %9, align 8, !tbaa !75
  %11 = load ptr, ptr %10, align 8, !tbaa !125
  %12 = tail call i32 @dictExpand(ptr noundef %11, i64 noundef %0) #18
  br label %13

13:                                               ; preds = %7, %5
  %.0 = phi ptr [ %6, %5 ], [ %8, %7 ]
  ret ptr %.0
}